target datalayout = "e-m:e-p270:32:32-p271:32:32-p272:64:64-i64:64-i128:128-f80:128-n8:16:32:64-S128"
target triple = "x86_64-pc-linux-gnu"

%struct.Curl_cfilter = type { ptr, ptr, ptr, ptr, i32, i8 }
%struct.Curl_cftype = type { ptr, i32, i32, ptr, ptr, ptr, ptr, ptr, ptr, ptr, ptr, ptr, ptr, ptr, ptr, ptr }

@Curl_cfree = external global ptr, align 8

; Function Attrs: nounwind uwtable
define dso_local zeroext i1 @Curl_conn_cf_discard_sub(ptr noundef %0, ptr noundef %1, ptr noundef %2, i1 noundef zeroext %3) #0 {
  %5 = alloca ptr, align 8
  %6 = alloca ptr, align 8
  %7 = alloca ptr, align 8
  %8 = alloca i8, align 1
  %9 = alloca ptr, align 8
  %10 = alloca i8, align 1
  store ptr %0, ptr %5, align 8, !tbaa !4
  store ptr %1, ptr %6, align 8, !tbaa !4
  store ptr %2, ptr %7, align 8, !tbaa !9
  %11 = zext i1 %3 to i8
  store i8 %11, ptr %8, align 1, !tbaa !13
  call void @llvm.lifetime.start.p0(i64 8, ptr %9) #5
  %12 = load ptr, ptr %5, align 8, !tbaa !4
  %13 = getelementptr inbounds nuw %struct.Curl_cfilter, ptr %12, i32 0, i32 1
  store ptr %13, ptr %9, align 8, !tbaa !66
  call void @llvm.lifetime.start.p0(i64 1, ptr %10) #5
  store i8 0, ptr %10, align 1, !tbaa !13
  br label %14

14:                                               ; preds = %4
  br label %15

15:                                               ; preds = %14
  br label %16

16:                                               ; preds = %15
  br label %17

17:                                               ; preds = %33, %16
  %18 = load ptr, ptr %9, align 8, !tbaa !66
  %19 = load ptr, ptr %18, align 8, !tbaa !4
  %20 = icmp ne ptr %19, null
  br i1 %20, label %21, label %37

21:                                               ; preds = %17
  %22 = load ptr, ptr %9, align 8, !tbaa !66
  %23 = load ptr, ptr %22, align 8, !tbaa !4
  %24 = load ptr, ptr %5, align 8, !tbaa !4
  %25 = icmp eq ptr %23, %24
  br i1 %25, label %26, label %33

26:                                               ; preds = %21
  %27 = load ptr, ptr %6, align 8, !tbaa !4
  %28 = getelementptr inbounds nuw %struct.Curl_cfilter, ptr %27, i32 0, i32 1
  %29 = load ptr, ptr %28, align 8, !tbaa !19
  %30 = load ptr, ptr %9, align 8, !tbaa !66
  store ptr %29, ptr %30, align 8, !tbaa !4
  %31 = load ptr, ptr %6, align 8, !tbaa !4
  %32 = getelementptr inbounds nuw %struct.Curl_cfilter, ptr %31, i32 0, i32 1
  store ptr null, ptr %32, align 8, !tbaa !19
  store i8 1, ptr %10, align 1, !tbaa !13
  br label %37

33:                                               ; preds = %21
  %34 = load ptr, ptr %9, align 8, !tbaa !66
  %35 = load ptr, ptr %34, align 8, !tbaa !4
  %36 = getelementptr inbounds nuw %struct.Curl_cfilter, ptr %35, i32 0, i32 1
  store ptr %36, ptr %9, align 8, !tbaa !66
  br label %17, !llvm.loop !141

37:                                               ; preds = %26, %17
  %38 = load i8, ptr %10, align 1, !tbaa !13, !range !60, !noundef !61
  %39 = trunc i8 %38 to i1
  br i1 %39, label %43, label %40

40:                                               ; preds = %37
  %41 = load i8, ptr %8, align 1, !tbaa !13, !range !60, !noundef !61
  %42 = trunc i8 %41 to i1
  br i1 %42, label %43, label %55

43:                                               ; preds = %40, %37
  %44 = load ptr, ptr %6, align 8, !tbaa !4
  %45 = getelementptr inbounds nuw %struct.Curl_cfilter, ptr %44, i32 0, i32 1
  store ptr null, ptr %45, align 8, !tbaa !19
  %46 = load ptr, ptr %6, align 8, !tbaa !4
  %47 = getelementptr inbounds nuw %struct.Curl_cfilter, ptr %46, i32 0, i32 0
  %48 = load ptr, ptr %47, align 8, !tbaa !24
  %49 = getelementptr inbounds nuw %struct.Curl_cftype, ptr %48, i32 0, i32 3
  %50 = load ptr, ptr %49, align 8, !tbaa !68
  %51 = load ptr, ptr %6, align 8, !tbaa !4
  %52 = load ptr, ptr %7, align 8, !tbaa !9
  call void %50(ptr noundef %51, ptr noundef %52)
  %53 = load ptr, ptr @Curl_cfree, align 8, !tbaa !57
  %54 = load ptr, ptr %6, align 8, !tbaa !4
  call void %53(ptr noundef %54)
  br label %55

55:                                               ; preds = %43, %40
  %56 = load i8, ptr %10, align 1, !tbaa !13, !range !60, !noundef !61
  %57 = trunc i8 %56 to i1
  call void @llvm.lifetime.end.p0(i64 1, ptr %10) #5
  call void @llvm.lifetime.end.p0(i64 8, ptr %9) #5
  ret i1 %57
}