; Function Attrs: nounwind uwtable
define dso_local noundef zeroext i1 @Curl_conn_cf_discard_sub(ptr noundef %0, ptr noundef %1, ptr noundef %2, i1 noundef zeroext %3) local_unnamed_addr #1 {
  br label %5

5:                                                ; preds = %7, %4
  %.pn = phi ptr [ %0, %4 ], [ %6, %7 ]
  %.015 = getelementptr inbounds nuw i8, ptr %.pn, i64 8
  %6 = load ptr, ptr %.015, align 8, !tbaa !51
  %.not.not.not.not.not.not = icmp ne ptr %6, null
  br i1 %.not.not.not.not.not.not, label %7, label %.critedge

7:                                                ; preds = %5
  %8 = icmp eq ptr %6, %0
  br i1 %8, label %9, label %5, !llvm.loop !127

9:                                                ; preds = %7
  %.015.le = getelementptr inbounds nuw i8, ptr %.pn, i64 8
  %10 = getelementptr inbounds nuw i8, ptr %1, i64 8
  %11 = load ptr, ptr %10, align 8, !tbaa !8
  store ptr %11, ptr %.015.le, align 8, !tbaa !51
  br label %12

.critedge:                                        ; preds = %5
  br i1 %3, label %12, label %18

12:                                               ; preds = %9, %.critedge
  %13 = getelementptr inbounds nuw i8, ptr %1, i64 8
  store ptr null, ptr %13, align 8, !tbaa !8
  %14 = load ptr, ptr %1, align 8, !tbaa !15
  %15 = getelementptr inbounds nuw i8, ptr %14, i64 16
  %16 = load ptr, ptr %15, align 8, !tbaa !52
  tail call void %16(ptr noundef nonnull %1, ptr noundef %2) #12
  %17 = load ptr, ptr @Curl_cfree, align 8, !tbaa !53
  tail call void %17(ptr noundef nonnull %1) #12
  br label %18

18:                                               ; preds = %12, %.critedge
  %.not.not.not25 = phi i1 [ %.not.not.not.not.not.not, %12 ], [ false, %.critedge ]
  ret i1 %.not.not.not25
}